; Function Attrs: mustprogress nofree norecurse nosync nounwind willreturn memory(argmem: readwrite) uwtable
define hidden void @opj_j2k_decoder_set_strict_mode(ptr noundef %0, i32 noundef %1) local_unnamed_addr #2 {
  %.not = icmp eq ptr %0, null
  br i1 %.not, label %9, label %3

3:                                                ; preds = %2
  %4 = getelementptr inbounds nuw i8, ptr %0, i64 304
  store i32 %1, ptr %4, align 8, !tbaa !28
  %.not4 = icmp eq i32 %1, 0
  br i1 %.not4, label %9, label %5

5:                                                ; preds = %3
  %6 = getelementptr inbounds nuw i8, ptr %0, i64 128
  %7 = load i8, ptr %6, align 8
  %8 = or i8 %7, 8
  store i8 %8, ptr %6, align 8
  br label %9

9:                                                ; preds = %3, %5, %2
  ret void
}